; Function Attrs: nounwind uwtable
define range(i32 -1414549496, 1) i32 @av_opt_set_pixel_fmt(ptr noundef %0, ptr noundef %1, i32 noundef %2, i32 noundef %3) local_unnamed_addr #2 {
  %5 = alloca ptr, align 8
  %6 = alloca ptr, align 8
  call void @llvm.lifetime.start.p0(i64 8, ptr nonnull %5) #18
  call void @llvm.lifetime.start.p0(i64 8, ptr nonnull %6) #18
  %7 = call fastcc i32 @opt_set_init(ptr noundef %0, ptr noundef %1, i32 noundef %3, i32 noundef 13, ptr noundef null, ptr noundef nonnull %5, ptr noundef %6)
  %8 = icmp slt i32 %7, 0
  br i1 %8, label %set_format.exit, label %9

9:                                                ; preds = %4
  %10 = load ptr, ptr %5, align 8, !tbaa !17
  %11 = getelementptr inbounds nuw i8, ptr %10, i64 32
  %12 = load double, ptr %11, align 8, !tbaa !39
  %13 = fcmp nsz ogt double %12, -1.000000e+00
  %14 = select i1 %13, double %12, double -1.000000e+00
  %15 = fptosi double %14 to i32
  %16 = getelementptr inbounds nuw i8, ptr %10, i64 40
  %17 = load double, ptr %16, align 8, !tbaa !40
  %18 = fcmp nsz ogt double %17, 2.570000e+02
  %19 = select nsz i1 %18, double 2.570000e+02, double %17
  %20 = fptosi double %19 to i32
  %21 = icmp slt i32 %2, %15
  %22 = icmp sgt i32 %2, %20
  %or.cond.i = select i1 %21, i1 true, i1 %22
  br i1 %or.cond.i, label %23, label %24

23:                                               ; preds = %9
  call void (ptr, i32, ptr, ...) @av_log(ptr noundef %0, i32 noundef 16, ptr noundef nonnull @.str.38, i32 noundef %2, ptr noundef %1, ptr noundef nonnull @.str.1, i32 noundef %15, i32 noundef %20) #18
  br label %set_format.exit

24:                                               ; preds = %9
  %25 = load ptr, ptr %6, align 8, !tbaa !53
  store i32 %2, ptr %25, align 4, !tbaa !26
  br label %set_format.exit

set_format.exit:                                  ; preds = %4, %23, %24
  %.0.i = phi i32 [ -34, %23 ], [ 0, %24 ], [ %7, %4 ]
  call void @llvm.lifetime.end.p0(i64 8, ptr nonnull %6) #18
  call void @llvm.lifetime.end.p0(i64 8, ptr nonnull %5) #18
  ret i32 %.0.i
}